; ModuleID = '46/2201.c'
source_filename = "46/2201.c"
target datalayout = "e-m:e-p270:32:32-p271:32:32-p272:64:64-i64:64-f80:128-n8:16:32:64-S128"
target triple = "x86_64-pc-linux-gnu"

@.str = private unnamed_addr constant [4 x i8] c"%d\0A\00", align 1
@.str.1 = private unnamed_addr constant [5 x i8] c"%d%d\00", align 1
@.str.2 = private unnamed_addr constant [3 x i8] c"%d\00", align 1

; Function Attrs: noinline nounwind uwtable
define dso_local void @f([100 x i32]* %0, i32 %1, i32 %2, i32 %3) #0 {
  %5 = alloca [100 x i32]*, align 8
  %6 = alloca i32, align 4
  %7 = alloca i32, align 4
  %8 = alloca i32, align 4
  %9 = alloca i32, align 4
  %10 = alloca i32, align 4
  %11 = alloca i32, align 4
  %12 = alloca i32, align 4
  %13 = alloca i32*, align 8
  store [100 x i32]* %0, [100 x i32]** %5, align 8
  store i32 %1, i32* %6, align 4
  store i32 %2, i32* %7, align 4
  store i32 %3, i32* %8, align 4
  store i32 0, i32* %9, align 4
  %14 = load i32, i32* %7, align 4
  %15 = add nsw i32 %14, 1
  %16 = load i32, i32* %8, align 4
  %17 = add nsw i32 %16, 1
  %18 = mul nsw i32 %15, %17
  store i32 %18, i32* %12, align 4
  store i32 1, i32* %11, align 4
  br label %19

19:                                               ; preds = %148, %4
  %20 = load [100 x i32]*, [100 x i32]** %5, align 8
  %21 = load i32, i32* %6, align 4
  %22 = sext i32 %21 to i64
  %23 = getelementptr inbounds [100 x i32], [100 x i32]* %20, i64 %22
  %24 = load i32, i32* %6, align 4
  %25 = sext i32 %24 to i64
  %26 = getelementptr inbounds [100 x i32], [100 x i32]* %23, i64 0, i64 %25
  store i32* %26, i32** %13, align 8
  br label %27

27:                                               ; preds = %43, %19
  %28 = load i32*, i32** %13, align 8
  %29 = load [100 x i32]*, [100 x i32]** %5, align 8
  %30 = load i32, i32* %6, align 4
  %31 = sext i32 %30 to i64
  %32 = getelementptr inbounds [100 x i32], [100 x i32]* %29, i64 %31
  %33 = load i32, i32* %7, align 4
  %34 = sext i32 %33 to i64
  %35 = getelementptr inbounds [100 x i32], [100 x i32]* %32, i64 0, i64 %34
  %36 = icmp ule i32* %28, %35
  br i1 %36, label %37, label %46

37:                                               ; preds = %27
  %38 = load i32*, i32** %13, align 8
  %39 = load i32, i32* %38, align 4
  %40 = call i32 (i8*, ...) @printf(i8* getelementptr inbounds ([4 x i8], [4 x i8]* @.str, i64 0, i64 0), i32 %39)
  %41 = load i32, i32* %9, align 4
  %42 = add nsw i32 %41, 1
  store i32 %42, i32* %9, align 4
  br label %43

43:                                               ; preds = %37
  %44 = load i32*, i32** %13, align 8
  %45 = getelementptr inbounds i32, i32* %44, i32 1
  store i32* %45, i32** %13, align 8
  br label %27

46:                                               ; preds = %27
  %47 = load i32, i32* %9, align 4
  %48 = load i32, i32* %12, align 4
  %49 = icmp eq i32 %47, %48
  br i1 %49, label %50, label %51

50:                                               ; preds = %46
  br label %151

51:                                               ; preds = %46
  %52 = load i32, i32* %6, align 4
  %53 = add nsw i32 %52, 1
  store i32 %53, i32* %10, align 4
  br label %54

54:                                               ; preds = %71, %51
  %55 = load i32, i32* %10, align 4
  %56 = load i32, i32* %8, align 4
  %57 = icmp sle i32 %55, %56
  br i1 %57, label %58, label %74

58:                                               ; preds = %54
  %59 = load [100 x i32]*, [100 x i32]** %5, align 8
  %60 = load i32, i32* %10, align 4
  %61 = sext i32 %60 to i64
  %62 = getelementptr inbounds [100 x i32], [100 x i32]* %59, i64 %61
  %63 = getelementptr inbounds [100 x i32], [100 x i32]* %62, i64 0, i64 0
  %64 = load i32, i32* %7, align 4
  %65 = sext i32 %64 to i64
  %66 = getelementptr inbounds i32, i32* %63, i64 %65
  %67 = load i32, i32* %66, align 4
  %68 = call i32 (i8*, ...) @printf(i8* getelementptr inbounds ([4 x i8], [4 x i8]* @.str, i64 0, i64 0), i32 %67)
  %69 = load i32, i32* %9, align 4
  %70 = add nsw i32 %69, 1
  store i32 %70, i32* %9, align 4
  br label %71

71:                                               ; preds = %58
  %72 = load i32, i32* %10, align 4
  %73 = add nsw i32 %72, 1
  store i32 %73, i32* %10, align 4
  br label %54

74:                                               ; preds = %54
  %75 = load i32, i32* %9, align 4
  %76 = load i32, i32* %12, align 4
  %77 = icmp eq i32 %75, %76
  br i1 %77, label %78, label %79

78:                                               ; preds = %74
  br label %151

79:                                               ; preds = %74
  %80 = load [100 x i32]*, [100 x i32]** %5, align 8
  %81 = load i32, i32* %8, align 4
  %82 = sext i32 %81 to i64
  %83 = getelementptr inbounds [100 x i32], [100 x i32]* %80, i64 %82
  %84 = load i32, i32* %7, align 4
  %85 = sub nsw i32 %84, 1
  %86 = sext i32 %85 to i64
  %87 = getelementptr inbounds [100 x i32], [100 x i32]* %83, i64 0, i64 %86
  store i32* %87, i32** %13, align 8
  br label %88

88:                                               ; preds = %104, %79
  %89 = load i32*, i32** %13, align 8
  %90 = load [100 x i32]*, [100 x i32]** %5, align 8
  %91 = load i32, i32* %8, align 4
  %92 = sext i32 %91 to i64
  %93 = getelementptr inbounds [100 x i32], [100 x i32]* %90, i64 %92
  %94 = load i32, i32* %6, align 4
  %95 = sext i32 %94 to i64
  %96 = getelementptr inbounds [100 x i32], [100 x i32]* %93, i64 0, i64 %95
  %97 = icmp uge i32* %89, %96
  br i1 %97, label %98, label %107

98:                                               ; preds = %88
  %99 = load i32*, i32** %13, align 8
  %100 = load i32, i32* %99, align 4
  %101 = call i32 (i8*, ...) @printf(i8* getelementptr inbounds ([4 x i8], [4 x i8]* @.str, i64 0, i64 0), i32 %100)
  %102 = load i32, i32* %9, align 4
  %103 = add nsw i32 %102, 1
  store i32 %103, i32* %9, align 4
  br label %104

104:                                              ; preds = %98
  %105 = load i32*, i32** %13, align 8
  %106 = getelementptr inbounds i32, i32* %105, i32 -1
  store i32* %106, i32** %13, align 8
  br label %88

107:                                              ; preds = %88
  %108 = load i32, i32* %9, align 4
  %109 = load i32, i32* %12, align 4
  %110 = icmp eq i32 %108, %109
  br i1 %110, label %111, label %112

111:                                              ; preds = %107
  br label %151

112:                                              ; preds = %107
  %113 = load i32, i32* %8, align 4
  %114 = sub nsw i32 %113, 1
  store i32 %114, i32* %10, align 4
  br label %115

115:                                              ; preds = %133, %112
  %116 = load i32, i32* %10, align 4
  %117 = load i32, i32* %6, align 4
  %118 = add nsw i32 %117, 1
  %119 = icmp sge i32 %116, %118
  br i1 %119, label %120, label %136

120:                                              ; preds = %115
  %121 = load [100 x i32]*, [100 x i32]** %5, align 8
  %122 = load i32, i32* %10, align 4
  %123 = sext i32 %122 to i64
  %124 = getelementptr inbounds [100 x i32], [100 x i32]* %121, i64 %123
  %125 = getelementptr inbounds [100 x i32], [100 x i32]* %124, i64 0, i64 0
  %126 = load i32, i32* %6, align 4
  %127 = sext i32 %126 to i64
  %128 = getelementptr inbounds i32, i32* %125, i64 %127
  %129 = load i32, i32* %128, align 4
  %130 = call i32 (i8*, ...) @printf(i8* getelementptr inbounds ([4 x i8], [4 x i8]* @.str, i64 0, i64 0), i32 %129)
  %131 = load i32, i32* %9, align 4
  %132 = add nsw i32 %131, 1
  store i32 %132, i32* %9, align 4
  br label %133

133:                                              ; preds = %120
  %134 = load i32, i32* %10, align 4
  %135 = add nsw i32 %134, -1
  store i32 %135, i32* %10, align 4
  br label %115

136:                                              ; preds = %115
  %137 = load i32, i32* %9, align 4
  %138 = load i32, i32* %12, align 4
  %139 = icmp eq i32 %137, %138
  br i1 %139, label %140, label %141

140:                                              ; preds = %136
  br label %151

141:                                              ; preds = %136
  %142 = load i32, i32* %6, align 4
  %143 = add nsw i32 %142, 1
  store i32 %143, i32* %6, align 4
  %144 = load i32, i32* %7, align 4
  %145 = add nsw i32 %144, -1
  store i32 %145, i32* %7, align 4
  %146 = load i32, i32* %8, align 4
  %147 = add nsw i32 %146, -1
  store i32 %147, i32* %8, align 4
  br label %148

148:                                              ; preds = %141
  %149 = load i32, i32* %11, align 4
  %150 = add nsw i32 %149, 1
  store i32 %150, i32* %11, align 4
  br label %19

151:                                              ; preds = %140, %111, %78, %50
  ret void
}

declare dso_local i32 @printf(i8*, ...) #1

; Function Attrs: noinline nounwind uwtable
define dso_local void @main() #0 {
  %1 = alloca i32, align 4
  %2 = alloca i32, align 4
  %3 = alloca i32, align 4
  %4 = alloca i32, align 4
  %5 = alloca [100 x [100 x i32]], align 16
  %6 = alloca i32, align 4
  %7 = alloca i32, align 4
  %8 = alloca i32, align 4
  store i32 0, i32* %6, align 4
  %9 = call i32 (i8*, ...) @__isoc99_scanf(i8* getelementptr inbounds ([5 x i8], [5 x i8]* @.str.1, i64 0, i64 0), i32* %1, i32* %2)
  store i32 0, i32* %3, align 4
  br label %10

10:                                               ; preds = %31, %0
  %11 = load i32, i32* %3, align 4
  %12 = load i32, i32* %1, align 4
  %13 = icmp slt i32 %11, %12
  br i1 %13, label %14, label %34

14:                                               ; preds = %10
  store i32 0, i32* %4, align 4
  br label %15

15:                                               ; preds = %27, %14
  %16 = load i32, i32* %4, align 4
  %17 = load i32, i32* %2, align 4
  %18 = icmp slt i32 %16, %17
  br i1 %18, label %19, label %30

19:                                               ; preds = %15
  %20 = load i32, i32* %3, align 4
  %21 = sext i32 %20 to i64
  %22 = getelementptr inbounds [100 x [100 x i32]], [100 x [100 x i32]]* %5, i64 0, i64 %21
  %23 = load i32, i32* %4, align 4
  %24 = sext i32 %23 to i64
  %25 = getelementptr inbounds [100 x i32], [100 x i32]* %22, i64 0, i64 %24
  %26 = call i32 (i8*, ...) @__isoc99_scanf(i8* getelementptr inbounds ([3 x i8], [3 x i8]* @.str.2, i64 0, i64 0), i32* %25)
  br label %27

27:                                               ; preds = %19
  %28 = load i32, i32* %4, align 4
  %29 = add nsw i32 %28, 1
  store i32 %29, i32* %4, align 4
  br label %15

30:                                               ; preds = %15
  br label %31

31:                                               ; preds = %30
  %32 = load i32, i32* %3, align 4
  %33 = add nsw i32 %32, 1
  store i32 %33, i32* %3, align 4
  br label %10

34:                                               ; preds = %10
  %35 = load i32, i32* %2, align 4
  %36 = sub nsw i32 %35, 1
  store i32 %36, i32* %7, align 4
  %37 = load i32, i32* %1, align 4
  %38 = sub nsw i32 %37, 1
  store i32 %38, i32* %8, align 4
  %39 = getelementptr inbounds [100 x [100 x i32]], [100 x [100 x i32]]* %5, i64 0, i64 0
  %40 = load i32, i32* %6, align 4
  %41 = load i32, i32* %7, align 4
  %42 = load i32, i32* %8, align 4
  call void @f([100 x i32]* %39, i32 %40, i32 %41, i32 %42)
  ret void
}

declare dso_local i32 @__isoc99_scanf(i8*, ...) #1


!llvm.module.flags = !{!0}
!llvm.ident = !{!1}

!0 = !{i32 1, !"wchar_size", i32 4}
!1 = !{!"clang version 10.0.0-4ubuntu1 "}
